target datalayout = "e-m:e-p270:32:32-p271:32:32-p272:64:64-i64:64-i128:128-f80:128-n8:16:32:64-S128"
target triple = "x86_64-pc-linux-gnu"

%"class.std::basic_string_view" = type { i64, ptr }
%"struct.toml::v3::impl::formatter_config" = type { i64, %"class.std::basic_string_view" }
%"class.toml::v3::impl::formatter" = type <{ ptr, ptr, %"struct.toml::v3::impl::formatter_config", i64, i64, ptr, i32, i8, [3 x i8] }>

; Function Attrs: mustprogress nounwind uwtable
define linkonce_odr void @_ZN4toml2v34impl9formatter15decrease_indentEv(ptr noundef nonnull align 8 dereferenceable(69) %0) #2 comdat align 2 {
  %2 = alloca ptr, align 8
  store ptr %0, ptr %2, align 8, !tbaa !374
  %3 = load ptr, ptr %2, align 8
  %4 = getelementptr inbounds nuw %"class.toml::v3::impl::formatter", ptr %3, i32 0, i32 6
  %5 = load i32, ptr %4, align 8, !tbaa !388
  %6 = add nsw i32 %5, -1
  store i32 %6, ptr %4, align 8, !tbaa !388
  ret void
}

; Function Attrs: alwaysinline mustprogress nounwind willreturn memory(read) uwtable
define linkonce_odr noundef nonnull align 8 dereferenceable(40) ptr @_ZNK4toml2v34impl9formatter6sourceEv(ptr noundef nonnull align 8 dereferenceable(69) %0) #5 comdat align 2 {
  %2 = alloca ptr, align 8
  store ptr %0, ptr %2, align 8, !tbaa !374
  %3 = load ptr, ptr %2, align 8
  %4 = getelementptr inbounds nuw %"class.toml::v3::impl::formatter", ptr %3, i32 0, i32 0
  %5 = load ptr, ptr %4, align 8, !tbaa !379
  ret ptr %5
}

; Function Attrs: mustprogress nounwind willreturn memory(none) uwtable
define noundef zeroext i1 @_ZN4toml2v34impl9formatter24dump_failed_parse_resultEv(ptr noundef nonnull align 8 dereferenceable(69) %0) #21 align 2 {
  %2 = alloca ptr, align 8
  store ptr %0, ptr %2, align 8, !tbaa !374
  ret i1 false
}

; Function Attrs: mustprogress uwtable
define void @_ZN4toml2v314yaml_formatter5printEv(ptr noundef nonnull align 8 dereferenceable(69) %0) #0 align 2 {
  %2 = alloca ptr, align 8
  %3 = alloca i8, align 1
  %4 = alloca i32, align 4
  store ptr %0, ptr %2, align 8, !tbaa !422
  %5 = load ptr, ptr %2, align 8
  %6 = call noundef zeroext i1 @_ZN4toml2v34impl9formatter24dump_failed_parse_resultEv(ptr noundef nonnull align 8 dereferenceable(69) %5) #38
  br i1 %6, label %7, label %8

7:                                                ; preds = %1
  br label %27

8:                                                ; preds = %1
  call void @llvm.lifetime.start.p0(i64 1, ptr %3) #36
  %9 = call noundef nonnull align 8 dereferenceable(40) ptr @_ZNK4toml2v34impl9formatter6sourceEv(ptr noundef nonnull align 8 dereferenceable(69) %5) #37
  %10 = load ptr, ptr %9, align 8, !tbaa !73
  %11 = getelementptr inbounds ptr, ptr %10, i64 5
  %12 = load ptr, ptr %11, align 8
  %13 = call noundef zeroext i8 %12(ptr noundef nonnull align 8 dereferenceable(40) %9) #37
  store i8 %13, ptr %3, align 1, !tbaa !220
  %14 = load i8, ptr %3, align 1, !tbaa !220
  switch i8 %14, label %21 [
    i8 1, label %15
    i8 2, label %17
    i8 3, label %19
  ]

15:                                               ; preds = %8
  call void @_ZN4toml2v34impl9formatter15decrease_indentEv(ptr noundef nonnull align 8 dereferenceable(69) %5) #36
  %16 = call noundef nonnull align 8 dereferenceable(40) ptr @_ZNK4toml2v34impl9formatter6sourceEv(ptr noundef nonnull align 8 dereferenceable(69) %5) #37
  call void @_ZN4toml2v314yaml_formatter5printERKNS0_5tableEb(ptr noundef nonnull align 8 dereferenceable(69) %5, ptr noundef nonnull align 8 dereferenceable(89) %16, i1 noundef zeroext false)
  store i32 2, ptr %4, align 4
  br label %24

17:                                               ; preds = %8
  %18 = call noundef nonnull align 8 dereferenceable(40) ptr @_ZNK4toml2v34impl9formatter6sourceEv(ptr noundef nonnull align 8 dereferenceable(69) %5) #37
  call void @_ZN4toml2v314yaml_formatter5printERKNS0_5arrayEb(ptr noundef nonnull align 8 dereferenceable(69) %5, ptr noundef nonnull align 8 dereferenceable(64) %18, i1 noundef zeroext false)
  store i32 2, ptr %4, align 4
  br label %24

19:                                               ; preds = %8
  %20 = call noundef nonnull align 8 dereferenceable(40) ptr @_ZNK4toml2v34impl9formatter6sourceEv(ptr noundef nonnull align 8 dereferenceable(69) %5) #37
  call void @_ZN4toml2v314yaml_formatter17print_yaml_stringERKNS0_5valueINSt7__cxx1112basic_stringIcSt11char_traitsIcESaIcEEEEE(ptr noundef nonnull align 8 dereferenceable(69) %5, ptr noundef nonnull align 8 dereferenceable(74) %20)
  store i32 2, ptr %4, align 4
  br label %24

21:                                               ; preds = %8
  %22 = call noundef nonnull align 8 dereferenceable(40) ptr @_ZNK4toml2v34impl9formatter6sourceEv(ptr noundef nonnull align 8 dereferenceable(69) %5) #37
  %23 = load i8, ptr %3, align 1, !tbaa !220
  call void @_ZN4toml2v34impl9formatter11print_valueERKNS0_4nodeENS0_9node_typeE(ptr noundef nonnull align 8 dereferenceable(69) %5, ptr noundef nonnull align 8 dereferenceable(40) %22, i8 noundef zeroext %23)
  store i32 0, ptr %4, align 4
  br label %24

24:                                               ; preds = %21, %19, %17, %15
  call void @llvm.lifetime.end.p0(i64 1, ptr %3) #36
  %25 = load i32, ptr %4, align 4
  switch i32 %25, label %28 [
    i32 0, label %26
    i32 2, label %27
  ]

26:                                               ; preds = %24
  br label %27

27:                                               ; preds = %7, %26, %24
  ret void

28:                                               ; preds = %24
  unreachable
}