; Function Attrs: mustprogress uwtable
define void @_ZN4toml2v314yaml_formatter5printEv(ptr noundef nonnull align 8 captures(none) dereferenceable(69) %0) local_unnamed_addr #0 align 2 {
  %2 = load ptr, ptr %0, align 8, !tbaa !105
  %3 = load ptr, ptr %2, align 8, !tbaa !44
  %4 = getelementptr inbounds nuw i8, ptr %3, i64 40
  %5 = load ptr, ptr %4, align 8
  %6 = tail call noundef zeroext i8 %5(ptr noundef nonnull align 8 dereferenceable(40) %2) #52
  switch i8 %6, label %13 [
    i8 1, label %7
    i8 2, label %11
    i8 3, label %12
  ]

7:                                                ; preds = %1
  %8 = getelementptr inbounds nuw i8, ptr %0, i64 64
  %9 = load i32, ptr %8, align 8, !tbaa !119
  %10 = add nsw i32 %9, -1
  store i32 %10, ptr %8, align 8, !tbaa !119
  tail call void @_ZN4toml2v314yaml_formatter5printERKNS0_5tableEb(ptr noundef nonnull align 8 dereferenceable(69) %0, ptr noundef nonnull align 8 dereferenceable(89) %2, i1 noundef zeroext false)
  br label %14

11:                                               ; preds = %1
  tail call void @_ZN4toml2v314yaml_formatter5printERKNS0_5arrayEb(ptr noundef nonnull align 8 dereferenceable(69) %0, ptr noundef nonnull align 8 dereferenceable(64) %2, i1 noundef zeroext false)
  br label %14

12:                                               ; preds = %1
  tail call void @_ZN4toml2v314yaml_formatter17print_yaml_stringERKNS0_5valueINSt7__cxx1112basic_stringIcSt11char_traitsIcESaIcEEEEE(ptr noundef nonnull align 8 dereferenceable(69) %0, ptr noundef nonnull align 8 dereferenceable(74) %2)
  br label %14

13:                                               ; preds = %1
  tail call void @_ZN4toml2v34impl9formatter11print_valueERKNS0_4nodeENS0_9node_typeE(ptr noundef nonnull align 8 dereferenceable(69) %0, ptr noundef nonnull align 8 dereferenceable(40) %2, i8 noundef zeroext %6)
  br label %14

14:                                               ; preds = %7, %11, %12, %13
  ret void
}